; Function Attrs: mustprogress uwtable
define noundef ptr @_ZN7rocksdb19TransactionBaseImpl16GetBatchForWriteEv(ptr noundef nonnull align 8 dereferenceable(400) %0) local_unnamed_addr #4 align 2 {
  %2 = getelementptr inbounds nuw i8, ptr %0, i64 376
  %3 = load i8, ptr %2, align 8, !tbaa !145, !range !56, !noundef !57
  %4 = trunc nuw i8 %3 to i1
  %5 = getelementptr inbounds nuw i8, ptr %0, i64 184
  br i1 %4, label %8, label %6

6:                                                ; preds = %1
  %7 = tail call noundef ptr @_ZN7rocksdb19WriteBatchWithIndex13GetWriteBatchEv(ptr noundef nonnull align 8 dereferenceable(16) %5)
  br label %8

8:                                                ; preds = %1, %6
  %.0 = phi ptr [ %7, %6 ], [ %5, %1 ]
  ret ptr %.0
}